ccopy_reg
_reconstructor
p0
(cpandas.core.series
Series
p1
c__builtin__
object
p2
Ntp3
Rp4
(dp5
S'_metadata'
p6
(lp7
S'name'
p8
asS'_data'
p9
g0
(cpandas.core.internals
SingleBlockManager
p10
g2
Ntp11
Rp12
((lp13
cpandas.indexes.base
_new_Index
p14
(cpandas.indexes.base
Index
p15
(dp16
S'data'
p17
cnumpy.core.multiarray
_reconstruct
p18
(cnumpy
ndarray
p19
(I0
tp20
S'b'
p21
tp22
Rp23
(I1
(I119
tp24
cnumpy
dtype
p25
(S'O4'
p26
I0
I1
tp27
Rp28
(I3
S'|'
p29
NNNI-1
I-1
I63
tp30
bI00
(lp31
S'https://assemblyseries.wustl.edu/'
p32
aS'https://assemblyseries.wustl.edu/2017/02/02/in-honor-of-groundhog-day/'
p33
aS'https://assemblyseries.wustl.edu/2017/02/27/live-stream-of-mitt-romneys-presentation/'
p34
aS'https://assemblyseries.wustl.edu/2017/04/04/an-ebullient-ode-to-freedom-variety-raves-over-assembly-series-next-speaker/'
p35
aS'https://assemblyseries.wustl.edu/about/'
p36
aS'https://assemblyseries.wustl.edu/about/art-architecture/'
p37
aS'https://assemblyseries.wustl.edu/about/business-and-economics/'
p38
aS'https://assemblyseries.wustl.edu/about/current-global-issues/'
p39
aS'https://assemblyseries.wustl.edu/about/education-society/'
p40
aS'https://assemblyseries.wustl.edu/about/environmentalism/'
p41
aS'https://assemblyseries.wustl.edu/about/healthcare-psychology/'
p42
aS'https://assemblyseries.wustl.edu/about/national-issues/'
p43
aS'https://assemblyseries.wustl.edu/about/science-technology/'
p44
aS'https://assemblyseries.wustl.edu/about/social-justice/'
p45
aS'https://assemblyseries.wustl.edu/assemblyseries/'
p46
aS'https://assemblyseries.wustl.edu/attend/'
p47
aS'https://assemblyseries.wustl.edu/contact/'
p48
aS'https://assemblyseries.wustl.edu/event/a-scientific-view-of-climate-change/'
p49
aS'https://assemblyseries.wustl.edu/event/can-art-save-lives/?rd=20170412'
p50
aS'https://assemblyseries.wustl.edu/event/east-west-street-on-the-origins-of-genocide-and-crimes-against-humanity/'
p51
aS'https://assemblyseries.wustl.edu/event/tickling-giants-film-screening-and-commentary/'
p52
aS'https://assemblyseries.wustl.edu/event/tickling-giants-film-screening-and-commentary/?rd=20170407'
p53
aS'https://assemblyseries.wustl.edu/fall-2016/'
p54
aS'https://assemblyseries.wustl.edu/notifications/'
p55
aS'https://assemblyseries.wustl.edu/past-speakers/'
p56
aS'https://assemblyseries.wustl.edu/past-speakers/fall-2011/'
p57
aS'https://assemblyseries.wustl.edu/past-speakers/fall-2012/'
p58
aS'https://assemblyseries.wustl.edu/past-speakers/fall-2013/'
p59
aS'https://assemblyseries.wustl.edu/past-speakers/fall-2014/'
p60
aS'https://assemblyseries.wustl.edu/past-speakers/fall-2015/'
p61
aS'https://assemblyseries.wustl.edu/past-speakers/spring-2012/'
p62
aS'https://assemblyseries.wustl.edu/past-speakers/spring-2013/'
p63
aS'https://assemblyseries.wustl.edu/past-speakers/spring-2014/'
p64
aS'https://assemblyseries.wustl.edu/past-speakers/spring-2015/'
p65
aS'https://assemblyseries.wustl.edu/people/adam-steltzner-2/'
p66
aS'https://assemblyseries.wustl.edu/people/alex-haley/'
p67
aS'https://assemblyseries.wustl.edu/people/anca-parvulescu/'
p68
aS'https://assemblyseries.wustl.edu/people/arsalan-iftikhar/'
p69
aS'https://assemblyseries.wustl.edu/people/bill-mckibben/'
p70
aS'https://assemblyseries.wustl.edu/people/bob-harris/'
p71
aS'https://assemblyseries.wustl.edu/people/brian-nosek/'
p72
aS'https://assemblyseries.wustl.edu/people/brittany-packnett-2/'
p73
aS'https://assemblyseries.wustl.edu/people/carl-hart/'
p74
aS'https://assemblyseries.wustl.edu/people/carla-power/'
p75
aS'https://assemblyseries.wustl.edu/people/catharine-mackinnon/'
p76
aS'https://assemblyseries.wustl.edu/people/chai-feldblum/'
p77
aS'https://assemblyseries.wustl.edu/people/christiane-gruber/'
p78
aS'https://assemblyseries.wustl.edu/people/christine-souffrant/'
p79
aS'https://assemblyseries.wustl.edu/people/christopher-newfield/'
p80
aS'https://assemblyseries.wustl.edu/people/claudia-rankine/'
p81
aS'https://assemblyseries.wustl.edu/people/cynthia-brinkley/'
p82
aS'https://assemblyseries.wustl.edu/people/dan-ariely/'
p83
aS'https://assemblyseries.wustl.edu/people/daniel-libeskind/'
p84
aS'https://assemblyseries.wustl.edu/people/david-axelrod/'
p85
aS'https://assemblyseries.wustl.edu/people/david-easterling/'
p86
aS'https://assemblyseries.wustl.edu/people/david-gere/'
p87
aS'https://assemblyseries.wustl.edu/people/dean-strang-2/'
p88
aS'https://assemblyseries.wustl.edu/people/doris-bergen/'
p89
aS'https://assemblyseries.wustl.edu/people/eddie-huang/'
p90
aS'https://assemblyseries.wustl.edu/people/eleanor-roosevelt/'
p91
aS'https://assemblyseries.wustl.edu/people/elijah-anderson/'
p92
aS'https://assemblyseries.wustl.edu/people/ellen-gustafson/'
p93
aS'https://assemblyseries.wustl.edu/people/eric-kandel/'
p94
aS'https://assemblyseries.wustl.edu/people/eric-schultz/'
p95
aS'https://assemblyseries.wustl.edu/people/garth-risk-hallberg/'
p96
aS'https://assemblyseries.wustl.edu/people/gregory-radick/'
p97
aS'https://assemblyseries.wustl.edu/people/harold-ramis/'
p98
aS'https://assemblyseries.wustl.edu/people/helen-fisher/'
p99
aS'https://assemblyseries.wustl.edu/people/honorable-john-paul-stevens-2/'
p100
aS'https://assemblyseries.wustl.edu/people/humberto-gonzalez-meredith-malone-neil-richards-panel-on-drones-in-society/'
p101
aS'https://assemblyseries.wustl.edu/people/james-boyle/'
p102
aS'https://assemblyseries.wustl.edu/people/jay-winter/'
p103
aS'https://assemblyseries.wustl.edu/people/jennifer-eberhardt-visual-attention-and-racial-bias/'
p104
aS'https://assemblyseries.wustl.edu/people/jeremy-courtney/'
p105
aS'https://assemblyseries.wustl.edu/people/jeremy-rifkin/'
p106
aS'https://assemblyseries.wustl.edu/people/john-chisholm-ronald-simpson-bey-redefining-justice-in-america/'
p107
aS'https://assemblyseries.wustl.edu/people/john-mcarthur/'
p108
aS'https://assemblyseries.wustl.edu/people/jonathan-gruber/'
p109
aS'https://assemblyseries.wustl.edu/people/juana-rodriguez/'
p110
aS'https://assemblyseries.wustl.edu/people/julian-bond-2/'
p111
aS'https://assemblyseries.wustl.edu/people/kathleen-coleman/'
p112
aS'https://assemblyseries.wustl.edu/people/kenji-yoshino/'
p113
aS'https://assemblyseries.wustl.edu/people/kevin-p-ray/'
p114
aS'https://assemblyseries.wustl.edu/people/lisa-lloyd/'
p115
aS'https://assemblyseries.wustl.edu/people/maurice-sendak/'
p116
aS'https://assemblyseries.wustl.edu/people/maya-angelou/'
p117
aS'https://assemblyseries.wustl.edu/people/mccain-angelo-karger/'
p118
aS'https://assemblyseries.wustl.edu/people/meghan-daum-truth-in-writing/'
p119
aS'https://assemblyseries.wustl.edu/people/melvin-oliver/'
p120
aS'https://assemblyseries.wustl.edu/people/mike-parker-pearson/'
p121
aS'https://assemblyseries.wustl.edu/people/mitt-romney/'
p122
aS'https://assemblyseries.wustl.edu/people/nasrine-seraji/'
p123
aS'https://assemblyseries.wustl.edu/people/patricia-williams/'
p124
aS'https://assemblyseries.wustl.edu/people/paul-farmer/'
p125
aS'https://assemblyseries.wustl.edu/people/philippe-sands/'
p126
aS'https://assemblyseries.wustl.edu/people/radiolab/'
p127
aS'https://assemblyseries.wustl.edu/people/rebecca-ginsburg-why-universities-should-be-in-prisons/'
p128
aS'https://assemblyseries.wustl.edu/people/reza-aslan/'
p129
aS'https://assemblyseries.wustl.edu/people/richard-davidson/'
p130
aS'https://assemblyseries.wustl.edu/people/robert-sussman/'
p131
aS'https://assemblyseries.wustl.edu/people/ruth-simmons/'
p132
aS'https://assemblyseries.wustl.edu/people/sandra-fluke/'
p133
aS'https://assemblyseries.wustl.edu/people/sara-taksler/'
p134
aS'https://assemblyseries.wustl.edu/people/sarah-wagner/'
p135
aS'https://assemblyseries.wustl.edu/people/sherrilyn-ifill/'
p136
aS'https://assemblyseries.wustl.edu/people/sheryl-wudunn/'
p137
aS'https://assemblyseries.wustl.edu/people/steven-galloway/'
p138
aS'https://assemblyseries.wustl.edu/people/susannah-cahalan/'
p139
aS'https://assemblyseries.wustl.edu/people/ta-nehisi-coates/'
p140
aS'https://assemblyseries.wustl.edu/people/thomas-maier-and-michelle-ashford/'
p141
aS'https://assemblyseries.wustl.edu/people/van-jones/'
p142
aS'https://assemblyseries.wustl.edu/people/walter-mondale/'
p143
aS'https://assemblyseries.wustl.edu/people/william-mckinnon/'
p144
aS'https://assemblyseries.wustl.edu/people/xavier-de-souza-briggs/'
p145
aS'https://assemblyseries.wustl.edu/spring-2016/'
p146
aS'https://assemblyseries.wustl.edu/upcoming-speakers/'
p147
aS'http://assemblyseries.wustl.edu/'
p148
aS'http://assemblyseries.wustl.edu/currentprograms/'
p149
aS'http://assemblyseries.wustl.edu/contact/'
p150
atp151
bsg8
Nstp152
Rp153
a(lp154
g18
(g19
(I0
tp155
g21
tp156
Rp157
(I1
(I119
tp158
g25
(S'f8'
p159
I0
I1
tp160
Rp161
(I3
S'<'
p162
NNNI-1
I-1
I0
tp163
bI00
S'[\x82\x82\x0c\xc2\xa1\x8c?N\xa0P\xd0\xf8\xf2t?N\xa0P\xd0\xf8\xf2t?N\xa0P\xd0\xf8\xf2t?N\x12,\xf6\xcb\xc8m?\xf3\x1ekkeC\x85?\x1fh\x84T7\x0f\x81?\xf2\xc3L\x01\x13\x8c\x82?\xa1SW\xcd\x06v\x85?P\xa0P\xd0\xf8\xf2t?\xdb\x19W\xb88\x91\x93?\xbcA\xc6\x189\xf4\x94?\xd7*\x0e\x92\xfc\xed\x87?m\xa2\xef\x8e\x82\xd3\xa1?\xb0`\x13\r\xcf\xcc\\?\xb0`\x13\r\xcf\xcc\\?E\x8a\xc9\xb2\x17\xe3\x87?\xc5o\xa0\xe7\x1ae}?2\xf2\x111\x0e\xb1p?\xc3o\xa0\xe7\x1ae}?4\x1c\xdc?\x01\xb4v?[fbI\x197r?\x93\x84\x8fT\xf5\x18\x91?\xae\x8f\x9cw\xd3\x17d?\x1e\xe4\n\x95\xa5%\xa5?CcR{\xbc\x08\xa4?\xff\xcac]\xfd\t\xa2?\xdf\'\xf0\xb5e\n\xa3?\x08\x1c\xa8\xb8\xd1r\xa4?z\x93*,\x0e)\xaa?\xff\xcac]\xfd\t\xa2?\x03\xde\x05\x84F7\xa6?\x95m[\xbe\x9c\x1c\xa4?\xc4M\x91\xf8\xbar\xa4?&\xc6\x92u\xd5\xcep?P\xa0P\xd0\xf8\xf2t?Q\xa0P\xd0\xf8\xf2t?\'\xc6\x92u\xd5\xcep?P\xa0P\xd0\xf8\xf2t?\'\xc6\x92u\xd5\xcep?Q\xa0P\xd0\xf8\xf2t?\'\xc6\x92u\xd5\xcep?m\xa7\xd2\xa7\x9a\x97n?b\xd1g\xeaL\x11l?9o\xd0\x8d\x95\x06m?Q\xa0P\xd0\xf8\xf2t?\'\xc6\x92u\xd5\xcep?&\xc6\x92u\xd5\xcep?\'\xc6\x92u\xd5\xcep?&\xc6\x92u\xd5\xcep?\'\xc6\x92u\xd5\xcep?\x96\xba{\xc3X\'q?\x9c.\xd0\xecx\xeev?\'\xc6\x92u\xd5\xcep?\x92\x18t\x93\xcb\x1e\x81?&\xc6\x92u\xd5\xcep?\'\xc6\x92u\xd5\xcep?O\xa0P\xd0\xf8\xf2t?\'\xc6\x92u\xd5\xcep?&\xc6\x92u\xd5\xcep?\'\xc6\x92u\xd5\xcep?&\xc6\x92u\xd5\xcep?9o\xd0\x8d\x95\x06m?\'\xc6\x92u\xd5\xcep?N\xa0P\xd0\xf8\xf2t?\'\xc6\x92u\xd5\xcep?N\xa0P\xd0\xf8\xf2t?\'\xc6\x92u\xd5\xcep?m\xa7\xd2\xa7\x9a\x97n?9o\xd0\x8d\x95\x06m?9o\xd0\x8d\x95\x06m?N\xa0P\xd0\xf8\xf2t?\'\xc6\x92u\xd5\xcep?&\xc6\x92u\xd5\xcep?N\xa0P\xd0\xf8\xf2t?O\xa0P\xd0\xf8\xf2t?O\xa0P\xd0\xf8\xf2t?m\xa7\xd2\xa7\x9a\x97n?&\xc6\x92u\xd5\xcep?\'\xc6\x92u\xd5\xcep?&\xc6\x92u\xd5\xcep?m\xa7\xd2\xa7\x9a\x97n?\'\xc6\x92u\xd5\xcep?&\xc6\x92u\xd5\xcep?N\xa0P\xd0\xf8\xf2t?O\xa0P\xd0\xf8\xf2t?m\xa7\xd2\xa7\x9a\x97n?O\xa0P\xd0\xf8\xf2t?m\xa7\xd2\xa7\x9a\x97n?\x97\xba{\xc3X\'q?P\xa0P\xd0\xf8\xf2t?\'\xc6\x92u\xd5\xcep?\'\xc6\x92u\xd5\xcep?\'\xc6\x92u\xd5\xcep?\x8b\x18t\x93\xcb\x1e\x81?m\xa7\xd2\xa7\x9a\x97n?&\xc6\x92u\xd5\xcep?b\xd1g\xeaL\x11l?&\xc6\x92u\xd5\xcep?9o\xd0\x8d\x95\x06m?%\xc6\x92u\xd5\xcep?N\xa0P\xd0\xf8\xf2t?\x8a\xdd#\x7f}\x8c{?\xa2\x93\xfcGa\xd9r?m\xa7\xd2\xa7\x9a\x97n?&\xc6\x92u\xd5\xcep?O\xa0P\xd0\xf8\xf2t?&\xc6\x92u\xd5\xcep?m\xa7\xd2\xa7\x9a\x97n?%\xc6\x92u\xd5\xcep?%\xc6\x92u\xd5\xcep?N\xa0P\xd0\xf8\xf2t?%\xc6\x92u\xd5\xcep?m\xa7\xd2\xa7\x9a\x97n?\x11?\xc1\xe6G\x10\x89?\xd1\x8b\xe64"\x17q?\x1a\xf0\xa6\x14\xf0\xa6T?\x1a\xf0\xa6\x14\xf0\xa6T?\x1a\xf0\xa6\x14\xf0\xa6T?'
p164
tp165
ba(lp166
g14
(g15
(dp167
g17
g18
(g19
(I0
tp168
g21
tp169
Rp170
(I1
(I119
tp171
g28
I00
(lp172
g32
ag33
ag34
ag35
ag36
ag37
ag38
ag39
ag40
ag41
ag42
ag43
ag44
ag45
ag46
ag47
ag48
ag49
ag50
ag51
ag52
ag53
ag54
ag55
ag56
ag57
ag58
ag59
ag60
ag61
ag62
ag63
ag64
ag65
ag66
ag67
ag68
ag69
ag70
ag71
ag72
ag73
ag74
ag75
ag76
ag77
ag78
ag79
ag80
ag81
ag82
ag83
ag84
ag85
ag86
ag87
ag88
ag89
ag90
ag91
ag92
ag93
ag94
ag95
ag96
ag97
ag98
ag99
ag100
ag101
ag102
ag103
ag104
ag105
ag106
ag107
ag108
ag109
ag110
ag111
ag112
ag113
ag114
ag115
ag116
ag117
ag118
ag119
ag120
ag121
ag122
ag123
ag124
ag125
ag126
ag127
ag128
ag129
ag130
ag131
ag132
ag133
ag134
ag135
ag136
ag137
ag138
ag139
ag140
ag141
ag142
ag143
ag144
ag145
ag146
ag147
ag148
ag149
ag150
atp173
bsg8
Nstp174
Rp175
a(dp176
S'0.14.1'
p177
(dp178
S'axes'
p179
g13
sS'blocks'
p180
(lp181
(dp182
S'mgr_locs'
p183
c__builtin__
slice
p184
(I0
I119
I1
tp185
Rp186
sS'values'
p187
g157
sasstp188
bsS'_typ'
p189
S'series'
p190
sg8
Nsb.